target datalayout = "e-m:e-p270:32:32-p271:32:32-p272:64:64-i64:64-i128:128-f80:128-n8:16:32:64-S128"
target triple = "x86_64-pc-linux-gnu"

%class.seq_decl_plugin = type { %class.decl_plugin.base, %class.ptr_vector, %class.ptr_vector.0, i8, %class.symbol, ptr, ptr, ptr, i8, i8, ptr }
%class.decl_plugin.base = type <{ ptr, ptr, i32 }>
%class.ptr_vector = type { %class.vector }
%class.vector = type { ptr }
%class.ptr_vector.0 = type { %class.vector.1 }
%class.vector.1 = type { ptr }
%class.symbol = type { ptr }
%class.zstring = type { %class.buffer }
%class.buffer = type { ptr, i32, i32, [64 x i8] }
%class.seq_util = type { ptr, ptr, ptr, i32, [4 x i8], %"class.seq_util::str", %"class.seq_util::rex" }
%"class.seq_util::str" = type <{ ptr, ptr, i32, [4 x i8] }>
%"class.seq_util::rex" = type { ptr, ptr, i32, %class.vector.46, %class.ref_vector.47, %"struct.seq_util::rex::info", %"struct.seq_util::rex::info" }
%class.vector.46 = type { ptr }
%class.ref_vector.47 = type { %class.ref_vector_core.48 }
%class.ref_vector_core.48 = type { %class.ref_manager_wrapper.49, %class.ptr_vector.50 }
%class.ref_manager_wrapper.49 = type { ptr }
%class.ptr_vector.50 = type { %class.vector.51 }
%class.vector.51 = type { ptr }
%"struct.seq_util::rex::info" = type { i32, i8, i32, i32 }

; Function Attrs: mustprogress nounwind uwtable
define linkonce_odr hidden noundef nonnull align 8 dereferenceable(40) ptr @_ZNK15seq_decl_plugin15get_char_pluginEv(ptr noundef nonnull align 8 dereferenceable(96) %0) #6 comdat align 2 {
  %2 = alloca ptr, align 8
  store ptr %0, ptr %2, align 8, !tbaa !3
  %3 = load ptr, ptr %2, align 8
  %4 = getelementptr inbounds nuw %class.seq_decl_plugin, ptr %3, i32 0, i32 10
  %5 = load ptr, ptr %4, align 8, !tbaa !32
  ret ptr %5
}

; Function Attrs: mustprogress uwtable
define hidden noundef ptr @_ZN15seq_decl_plugin7mk_charEj(ptr noundef nonnull align 8 dereferenceable(96) %0, i32 noundef %1) #4 align 2 {
  %3 = alloca ptr, align 8
  %4 = alloca i32, align 4
  store ptr %0, ptr %3, align 8, !tbaa !3
  store i32 %1, ptr %4, align 4, !tbaa !55
  %5 = load ptr, ptr %3, align 8
  %6 = call noundef nonnull align 8 dereferenceable(40) ptr @_ZNK15seq_decl_plugin15get_char_pluginEv(ptr noundef nonnull align 8 dereferenceable(96) %5)
  %7 = load i32, ptr %4, align 4, !tbaa !55
  %8 = call noundef ptr @_ZN16char_decl_plugin7mk_charEj(ptr noundef nonnull align 8 dereferenceable(40) %6, i32 noundef %7)
  ret ptr %8
}

; Function Attrs: mustprogress nounwind uwtable
define linkonce_odr hidden noundef nonnull align 4 dereferenceable(4) ptr @_ZNK6bufferIjLb1ELj16EEixEj(ptr noundef nonnull align 8 dereferenceable(80) %0, i32 noundef %1) #6 comdat align 2 {
  %3 = alloca ptr, align 8
  %4 = alloca i32, align 4
  store ptr %0, ptr %3, align 8, !tbaa !386
  store i32 %1, ptr %4, align 4, !tbaa !55
  %5 = load ptr, ptr %3, align 8
  %6 = getelementptr inbounds nuw %class.buffer, ptr %5, i32 0, i32 0
  %7 = load ptr, ptr %6, align 8, !tbaa !388
  %8 = load i32, ptr %4, align 4, !tbaa !55
  %9 = zext i32 %8 to i64
  %10 = getelementptr inbounds nuw i32, ptr %7, i64 %9
  ret ptr %10
}

; Function Attrs: mustprogress uwtable
define hidden noundef ptr @_ZNK8seq_util7mk_charEj(ptr noundef nonnull align 8 dereferenceable(136) %0, i32 noundef %1) #4 align 2 {
  %3 = alloca ptr, align 8
  %4 = alloca i32, align 4
  store ptr %0, ptr %3, align 8, !tbaa !207
  store i32 %1, ptr %4, align 4, !tbaa !55
  %5 = load ptr, ptr %3, align 8
  %6 = getelementptr inbounds nuw %class.seq_util, ptr %5, i32 0, i32 1
  %7 = load ptr, ptr %6, align 8, !tbaa !209
  %8 = load i32, ptr %4, align 4, !tbaa !55
  %9 = call noundef ptr @_ZN15seq_decl_plugin7mk_charEj(ptr noundef nonnull align 8 dereferenceable(96) %7, i32 noundef %8)
  ret ptr %9
}

; Function Attrs: mustprogress uwtable
define linkonce_odr hidden noundef i32 @_ZNK7zstringixEj(ptr noundef nonnull align 8 dereferenceable(80) %0, i32 noundef %1) #4 comdat align 2 {
  %3 = alloca ptr, align 8
  %4 = alloca i32, align 4
  store ptr %0, ptr %3, align 8, !tbaa !189
  store i32 %1, ptr %4, align 4, !tbaa !55
  %5 = load ptr, ptr %3, align 8
  %6 = getelementptr inbounds nuw %class.zstring, ptr %5, i32 0, i32 0
  %7 = load i32, ptr %4, align 4, !tbaa !55
  %8 = call noundef nonnull align 4 dereferenceable(4) ptr @_ZNK6bufferIjLb1ELj16EEixEj(ptr noundef nonnull align 8 dereferenceable(80) %6, i32 noundef %7)
  %9 = load i32, ptr %8, align 4, !tbaa !55
  ret i32 %9
}

; Function Attrs: mustprogress uwtable
define hidden noundef ptr @_ZNK8seq_util3str7mk_charERK7zstringj(ptr noundef nonnull align 8 dereferenceable(20) %0, ptr noundef nonnull align 8 dereferenceable(80) %1, i32 noundef %2) #4 align 2 {
  %4 = alloca ptr, align 8
  %5 = alloca ptr, align 8
  %6 = alloca i32, align 4
  store ptr %0, ptr %4, align 8, !tbaa !224
  store ptr %1, ptr %5, align 8, !tbaa !189
  store i32 %2, ptr %6, align 4, !tbaa !55
  %7 = load ptr, ptr %4, align 8
  %8 = getelementptr inbounds nuw %"class.seq_util::str", ptr %7, i32 0, i32 0
  %9 = load ptr, ptr %8, align 8, !tbaa !242
  %10 = load ptr, ptr %5, align 8, !tbaa !189
  %11 = load i32, ptr %6, align 4, !tbaa !55
  %12 = call noundef i32 @_ZNK7zstringixEj(ptr noundef nonnull align 8 dereferenceable(80) %10, i32 noundef %11)
  %13 = call noundef ptr @_ZNK8seq_util7mk_charEj(ptr noundef nonnull align 8 dereferenceable(136) %9, i32 noundef %12)
  ret ptr %13
}