; Function Attrs: mustprogress uwtable
define hidden noundef ptr @_ZNK8seq_util3str7mk_charERK7zstringj(ptr noundef nonnull readonly align 8 captures(none) dereferenceable(20) %0, ptr noundef nonnull readonly align 8 captures(none) dereferenceable(80) %1, i32 noundef %2) local_unnamed_addr #3 align 2 {
  %4 = load ptr, ptr %0, align 8, !tbaa !214
  %5 = load ptr, ptr %1, align 8, !tbaa !162
  %6 = zext i32 %2 to i64
  %7 = getelementptr inbounds nuw i32, ptr %5, i64 %6
  %8 = load i32, ptr %7, align 4, !tbaa !29
  %9 = getelementptr inbounds nuw i8, ptr %4, i64 8
  %10 = load ptr, ptr %9, align 8, !tbaa !215
  %11 = getelementptr inbounds nuw i8, ptr %10, i64 88
  %12 = load ptr, ptr %11, align 8, !tbaa !13
  %13 = tail call noundef ptr @_ZN16char_decl_plugin7mk_charEj(ptr noundef nonnull align 8 dereferenceable(40) %12, i32 noundef %8)
  ret ptr %13
}